; ModuleID = 'source-C-CXX/18/637.c'
source_filename = "source-C-CXX/18/637.c"
target datalayout = "e-m:e-p270:32:32-p271:32:32-p272:64:64-i64:64-f80:128-n8:16:32:64-S128"
target triple = "x86_64-pc-linux-gnu"

@.str = private unnamed_addr constant [3 x i8] c"%c\00", align 1
@.str.1 = private unnamed_addr constant [3 x i8] c"%s\00", align 1
@.str.2 = private unnamed_addr constant [4 x i8] c" %s\00", align 1

; Function Attrs: nounwind sspstrong uwtable
define dso_local i32 @main() local_unnamed_addr #0 {
  %1 = alloca [100 x [101 x i8]], align 16
  %2 = alloca [101 x i8], align 16
  %3 = alloca [101 x i8], align 16
  %4 = getelementptr inbounds [100 x [101 x i8]], [100 x [101 x i8]]* %1, i64 0, i64 0, i64 0
  call void @llvm.lifetime.start.p0i8(i64 10100, i8* nonnull %4) #6
  %5 = getelementptr inbounds [101 x i8], [101 x i8]* %2, i64 0, i64 0
  call void @llvm.lifetime.start.p0i8(i64 101, i8* nonnull %5) #6
  %6 = getelementptr inbounds [101 x i8], [101 x i8]* %3, i64 0, i64 0
  call void @llvm.lifetime.start.p0i8(i64 101, i8* nonnull %6) #6
  br label %7

7:                                                ; preds = %20, %0
  %8 = phi i32 [ 0, %0 ], [ %22, %20 ]
  %9 = sext i32 %8 to i64
  br label %10

10:                                               ; preds = %18, %7
  %11 = phi i64 [ %19, %18 ], [ 0, %7 ]
  %12 = getelementptr inbounds [100 x [101 x i8]], [100 x [101 x i8]]* %1, i64 0, i64 %9, i64 %11
  %13 = call i32 (i8*, ...) @__isoc99_scanf(i8* getelementptr inbounds ([3 x i8], [3 x i8]* @.str, i64 0, i64 0), i8* nonnull %12)
  %14 = load i8, i8* %12, align 1, !tbaa !5
  switch i8 %14, label %18 [
    i8 32, label %15
    i8 10, label %20
  ]

15:                                               ; preds = %10
  store i8 0, i8* %12, align 1, !tbaa !5
  %16 = add nsw i32 %8, 1
  %17 = sext i32 %16 to i64
  br label %20

18:                                               ; preds = %10
  %19 = add nuw i64 %11, 1
  br label %10

20:                                               ; preds = %10, %15
  %21 = phi i64 [ %17, %15 ], [ %9, %10 ]
  %22 = phi i32 [ %16, %15 ], [ %8, %10 ]
  %23 = and i64 %11, 4294967295
  %24 = getelementptr inbounds [100 x [101 x i8]], [100 x [101 x i8]]* %1, i64 0, i64 %21, i64 %23
  %25 = load i8, i8* %24, align 1, !tbaa !5
  %26 = icmp eq i8 %25, 10
  br i1 %26, label %27, label %7

27:                                               ; preds = %20
  store i8 0, i8* %24, align 1, !tbaa !5
  %28 = call i32 (i8*, ...) bitcast (i32 (...)* @gets to i32 (i8*, ...)*)(i8* nonnull %5) #6
  %29 = call i32 (i8*, ...) bitcast (i32 (...)* @gets to i32 (i8*, ...)*)(i8* nonnull %6) #6
  %30 = icmp slt i32 %22, 0
  br i1 %30, label %56, label %31

31:                                               ; preds = %27
  %32 = add nuw i32 %22, 1
  %33 = zext i32 %32 to i64
  br label %40

34:                                               ; preds = %47
  br i1 %30, label %56, label %35

35:                                               ; preds = %34
  %36 = add nuw i32 %22, 1
  %37 = zext i32 %36 to i64
  %38 = call i32 (i8*, ...) @printf(i8* nonnull dereferenceable(1) getelementptr inbounds ([3 x i8], [3 x i8]* @.str.1, i64 0, i64 0), i8* nonnull %4)
  %39 = icmp eq i32 %22, 0
  br i1 %39, label %56, label %50

40:                                               ; preds = %31, %47
  %41 = phi i64 [ 0, %31 ], [ %48, %47 ]
  %42 = getelementptr inbounds [100 x [101 x i8]], [100 x [101 x i8]]* %1, i64 0, i64 %41, i64 0
  %43 = call i32 @strcmp(i8* noundef nonnull %42, i8* noundef nonnull %5) #7
  %44 = icmp eq i32 %43, 0
  br i1 %44, label %45, label %47

45:                                               ; preds = %40
  %46 = call i8* @strcpy(i8* noundef nonnull %42, i8* noundef nonnull %6) #6
  br label %47

47:                                               ; preds = %40, %45
  %48 = add nuw nsw i64 %41, 1
  %49 = icmp eq i64 %48, %33
  br i1 %49, label %34, label %40, !llvm.loop !8

50:                                               ; preds = %35, %50
  %51 = phi i64 [ %54, %50 ], [ 1, %35 ]
  %52 = getelementptr inbounds [100 x [101 x i8]], [100 x [101 x i8]]* %1, i64 0, i64 %51, i64 0
  %53 = call i32 (i8*, ...) @printf(i8* nonnull dereferenceable(1) getelementptr inbounds ([4 x i8], [4 x i8]* @.str.2, i64 0, i64 0), i8* nonnull %52)
  %54 = add nuw nsw i64 %51, 1
  %55 = icmp eq i64 %54, %37
  br i1 %55, label %56, label %50, !llvm.loop !10

56:                                               ; preds = %50, %27, %35, %34
  call void @llvm.lifetime.end.p0i8(i64 101, i8* nonnull %6) #6
  call void @llvm.lifetime.end.p0i8(i64 101, i8* nonnull %5) #6
  call void @llvm.lifetime.end.p0i8(i64 10100, i8* nonnull %4) #6
  ret i32 0
}

; Function Attrs: argmemonly mustprogress nofree nosync nounwind willreturn
declare void @llvm.lifetime.start.p0i8(i64 immarg, i8* nocapture) #1

; Function Attrs: nofree nounwind
declare noundef i32 @__isoc99_scanf(i8* nocapture noundef readonly, ...) local_unnamed_addr #2

declare i32 @gets(...) local_unnamed_addr #3

; Function Attrs: argmemonly mustprogress nofree nounwind readonly willreturn
declare i32 @strcmp(i8* nocapture, i8* nocapture) local_unnamed_addr #4

; Function Attrs: argmemonly mustprogress nofree nounwind willreturn
declare i8* @strcpy(i8* noalias returned writeonly, i8* noalias nocapture readonly) local_unnamed_addr #5

; Function Attrs: nofree nounwind
declare noundef i32 @printf(i8* nocapture noundef readonly, ...) local_unnamed_addr #2

; Function Attrs: argmemonly mustprogress nofree nosync nounwind willreturn
declare void @llvm.lifetime.end.p0i8(i64 immarg, i8* nocapture) #1


!llvm.module.flags = !{!0, !1, !2, !3}
!llvm.ident = !{!4}

!0 = !{i32 1, !"wchar_size", i32 4}
!1 = !{i32 7, !"PIC Level", i32 2}
!2 = !{i32 7, !"PIE Level", i32 2}
!3 = !{i32 7, !"uwtable", i32 1}
!4 = !{!"clang version 13.0.0"}
!5 = !{!6, !6, i64 0}
!6 = !{!"omnipotent char", !7, i64 0}
!7 = !{!"Simple C/C++ TBAA"}
!8 = distinct !{!8, !9}
!9 = !{!"llvm.loop.mustprogress"}
!10 = distinct !{!10, !9, !11}
!11 = !{!"llvm.loop.peeled.count", i32 1}
